target datalayout = "e-m:e-p270:32:32-p271:32:32-p272:64:64-i64:64-i128:128-f80:128-n8:16:32:64-S128"
target triple = "x86_64-pc-linux-gnu"

%struct.AVFilterContext = type { ptr, ptr, ptr, ptr, ptr, i32, ptr, ptr, i32, ptr, ptr, i32, i32, ptr, ptr, ptr, ptr, i32, ptr, i32, i32 }
%struct.FieldMatchContext = type { ptr, ptr, ptr, ptr, ptr, ptr, ptr, [2 x i32], [2 x i32], [2 x i32], i32, i32, i64, i64, i32, i32, i32, i32, i32, i32, i32, i64, double, i32, i32, i32, i32, i32, i32, i32, [4 x ptr], [4 x i32], [4 x ptr], [4 x i32], ptr, i32, i32, ptr }

; Function Attrs: inlinehint nounwind uwtable
define internal void @ff_outlink_set_status(ptr noundef %0, i32 noundef %1, i64 noundef %2) #3 {
  %4 = alloca ptr, align 8
  %5 = alloca i32, align 4
  %6 = alloca i64, align 8
  store ptr %0, ptr %4, align 8, !tbaa !51
  store i32 %1, ptr %5, align 4, !tbaa !24
  store i64 %2, ptr %6, align 8, !tbaa !58
  %7 = load ptr, ptr %4, align 8, !tbaa !51
  %8 = load i32, ptr %5, align 4, !tbaa !24
  %9 = load i64, ptr %6, align 8, !tbaa !58
  call void @ff_avfilter_link_set_in_status(ptr noundef %7, i32 noundef %8, i64 noundef %9)
  ret void
}

; Function Attrs: nounwind uwtable
define internal i32 @activate(ptr noundef %0) #1 {
  %2 = alloca i32, align 4
  %3 = alloca ptr, align 8
  %4 = alloca ptr, align 8
  %5 = alloca ptr, align 8
  %6 = alloca i32, align 4
  %7 = alloca i32, align 4
  %8 = alloca i64, align 8
  %9 = alloca i32, align 4
  %10 = alloca i32, align 4
  %11 = alloca i32, align 4
  store ptr %0, ptr %3, align 8, !tbaa !4
  call void @llvm.lifetime.start.p0(i64 8, ptr %4) #10
  %12 = load ptr, ptr %3, align 8, !tbaa !4
  %13 = getelementptr inbounds nuw %struct.AVFilterContext, ptr %12, i32 0, i32 9
  %14 = load ptr, ptr %13, align 8, !tbaa !9
  store ptr %14, ptr %4, align 8, !tbaa !22
  call void @llvm.lifetime.start.p0(i64 8, ptr %5) #10
  store ptr null, ptr %5, align 8, !tbaa !49
  call void @llvm.lifetime.start.p0(i64 4, ptr %6) #10
  store i32 0, ptr %6, align 4, !tbaa !24
  call void @llvm.lifetime.start.p0(i64 4, ptr %7) #10
  call void @llvm.lifetime.start.p0(i64 8, ptr %8) #10
  br label %15

15:                                               ; preds = %1
  call void @llvm.lifetime.start.p0(i64 4, ptr %9) #10
  %16 = load ptr, ptr %3, align 8, !tbaa !4
  %17 = getelementptr inbounds nuw %struct.AVFilterContext, ptr %16, i32 0, i32 7
  %18 = load ptr, ptr %17, align 8, !tbaa !50
  %19 = getelementptr inbounds ptr, ptr %18, i64 0
  %20 = load ptr, ptr %19, align 8, !tbaa !51
  %21 = call i32 @ff_outlink_get_status(ptr noundef %20)
  store i32 %21, ptr %9, align 4, !tbaa !24
  %22 = load i32, ptr %9, align 4, !tbaa !24
  %23 = icmp ne i32 %22, 0
  br i1 %23, label %24, label %44

24:                                               ; preds = %15
  call void @llvm.lifetime.start.p0(i64 4, ptr %10) #10
  store i32 0, ptr %10, align 4, !tbaa !24
  br label %25

25:                                               ; preds = %40, %24
  %26 = load i32, ptr %10, align 4, !tbaa !24
  %27 = load ptr, ptr %3, align 8, !tbaa !4
  %28 = getelementptr inbounds nuw %struct.AVFilterContext, ptr %27, i32 0, i32 5
  %29 = load i32, ptr %28, align 8, !tbaa !53
  %30 = icmp ult i32 %26, %29
  br i1 %30, label %31, label %43

31:                                               ; preds = %25
  %32 = load ptr, ptr %3, align 8, !tbaa !4
  %33 = getelementptr inbounds nuw %struct.AVFilterContext, ptr %32, i32 0, i32 4
  %34 = load ptr, ptr %33, align 8, !tbaa !54
  %35 = load i32, ptr %10, align 4, !tbaa !24
  %36 = zext i32 %35 to i64
  %37 = getelementptr inbounds nuw ptr, ptr %34, i64 %36
  %38 = load ptr, ptr %37, align 8, !tbaa !51
  %39 = load i32, ptr %9, align 4, !tbaa !24
  call void @ff_inlink_set_status(ptr noundef %38, i32 noundef %39)
  br label %40

40:                                               ; preds = %31
  %41 = load i32, ptr %10, align 4, !tbaa !24
  %42 = add i32 %41, 1
  store i32 %42, ptr %10, align 4, !tbaa !24
  br label %25, !llvm.loop !55

43:                                               ; preds = %25
  store i32 0, ptr %2, align 4
  store i32 1, ptr %11, align 4
  call void @llvm.lifetime.end.p0(i64 4, ptr %10) #10
  br label %45

44:                                               ; preds = %15
  store i32 0, ptr %11, align 4
  br label %45

45:                                               ; preds = %44, %43
  call void @llvm.lifetime.end.p0(i64 4, ptr %9) #10
  %46 = load i32, ptr %11, align 4
  switch i32 %46, label %224 [
    i32 0, label %47
  ]

47:                                               ; preds = %45
  br label %48

48:                                               ; preds = %47
  br label %49

49:                                               ; preds = %48
  %50 = load ptr, ptr %4, align 8, !tbaa !22
  %51 = getelementptr inbounds nuw %struct.FieldMatchContext, ptr %50, i32 0, i32 7
  %52 = getelementptr inbounds [2 x i32], ptr %51, i64 0, i64 0
  %53 = load i32, ptr %52, align 8, !tbaa !24
  %54 = icmp eq i32 %53, 0
  br i1 %54, label %55, label %76

55:                                               ; preds = %49
  %56 = load ptr, ptr %3, align 8, !tbaa !4
  %57 = getelementptr inbounds nuw %struct.AVFilterContext, ptr %56, i32 0, i32 4
  %58 = load ptr, ptr %57, align 8, !tbaa !54
  %59 = getelementptr inbounds ptr, ptr %58, i64 0
  %60 = load ptr, ptr %59, align 8, !tbaa !51
  %61 = call i32 @ff_inlink_consume_frame(ptr noundef %60, ptr noundef %5)
  store i32 %61, ptr %6, align 4, !tbaa !24
  %62 = icmp sgt i32 %61, 0
  br i1 %62, label %63, label %76

63:                                               ; preds = %55
  %64 = load ptr, ptr %3, align 8, !tbaa !4
  %65 = getelementptr inbounds nuw %struct.AVFilterContext, ptr %64, i32 0, i32 4
  %66 = load ptr, ptr %65, align 8, !tbaa !54
  %67 = getelementptr inbounds ptr, ptr %66, i64 0
  %68 = load ptr, ptr %67, align 8, !tbaa !51
  %69 = load ptr, ptr %5, align 8, !tbaa !49
  %70 = call i32 @filter_frame(ptr noundef %68, ptr noundef %69)
  store i32 %70, ptr %6, align 4, !tbaa !24
  %71 = load i32, ptr %6, align 4, !tbaa !24
  %72 = icmp slt i32 %71, 0
  br i1 %72, label %73, label %75

73:                                               ; preds = %63
  %74 = load i32, ptr %6, align 4, !tbaa !24
  store i32 %74, ptr %2, align 4
  store i32 1, ptr %11, align 4
  br label %224

75:                                               ; preds = %63
  br label %76

76:                                               ; preds = %75, %55, %49
  %77 = load i32, ptr %6, align 4, !tbaa !24
  %78 = icmp slt i32 %77, 0
  br i1 %78, label %79, label %81

79:                                               ; preds = %76
  %80 = load i32, ptr %6, align 4, !tbaa !24
  store i32 %80, ptr %2, align 4
  store i32 1, ptr %11, align 4
  br label %224

81:                                               ; preds = %76
  %82 = load ptr, ptr %4, align 8, !tbaa !22
  %83 = getelementptr inbounds nuw %struct.FieldMatchContext, ptr %82, i32 0, i32 15
  %84 = load i32, ptr %83, align 4, !tbaa !25
  %85 = icmp ne i32 %84, 0
  br i1 %85, label %86, label %113

86:                                               ; preds = %81
  %87 = load ptr, ptr %4, align 8, !tbaa !22
  %88 = getelementptr inbounds nuw %struct.FieldMatchContext, ptr %87, i32 0, i32 7
  %89 = getelementptr inbounds [2 x i32], ptr %88, i64 0, i64 1
  %90 = load i32, ptr %89, align 4, !tbaa !24
  %91 = icmp eq i32 %90, 0
  br i1 %91, label %92, label %113

92:                                               ; preds = %86
  %93 = load ptr, ptr %3, align 8, !tbaa !4
  %94 = getelementptr inbounds nuw %struct.AVFilterContext, ptr %93, i32 0, i32 4
  %95 = load ptr, ptr %94, align 8, !tbaa !54
  %96 = getelementptr inbounds ptr, ptr %95, i64 1
  %97 = load ptr, ptr %96, align 8, !tbaa !51
  %98 = call i32 @ff_inlink_consume_frame(ptr noundef %97, ptr noundef %5)
  store i32 %98, ptr %6, align 4, !tbaa !24
  %99 = icmp sgt i32 %98, 0
  br i1 %99, label %100, label %113

100:                                              ; preds = %92
  %101 = load ptr, ptr %3, align 8, !tbaa !4
  %102 = getelementptr inbounds nuw %struct.AVFilterContext, ptr %101, i32 0, i32 4
  %103 = load ptr, ptr %102, align 8, !tbaa !54
  %104 = getelementptr inbounds ptr, ptr %103, i64 1
  %105 = load ptr, ptr %104, align 8, !tbaa !51
  %106 = load ptr, ptr %5, align 8, !tbaa !49
  %107 = call i32 @filter_frame(ptr noundef %105, ptr noundef %106)
  store i32 %107, ptr %6, align 4, !tbaa !24
  %108 = load i32, ptr %6, align 4, !tbaa !24
  %109 = icmp slt i32 %108, 0
  br i1 %109, label %110, label %112

110:                                              ; preds = %100
  %111 = load i32, ptr %6, align 4, !tbaa !24
  store i32 %111, ptr %2, align 4
  store i32 1, ptr %11, align 4
  br label %224

112:                                              ; preds = %100
  br label %113

113:                                              ; preds = %112, %92, %86, %81
  %114 = load i32, ptr %6, align 4, !tbaa !24
  %115 = icmp slt i32 %114, 0
  br i1 %115, label %116, label %118

116:                                              ; preds = %113
  %117 = load i32, ptr %6, align 4, !tbaa !24
  store i32 %117, ptr %2, align 4
  store i32 1, ptr %11, align 4
  br label %224

118:                                              ; preds = %113
  %119 = load ptr, ptr %3, align 8, !tbaa !4
  %120 = getelementptr inbounds nuw %struct.AVFilterContext, ptr %119, i32 0, i32 4
  %121 = load ptr, ptr %120, align 8, !tbaa !54
  %122 = getelementptr inbounds ptr, ptr %121, i64 0
  %123 = load ptr, ptr %122, align 8, !tbaa !51
  %124 = call i32 @ff_inlink_acknowledge_status(ptr noundef %123, ptr noundef %7, ptr noundef %8)
  %125 = icmp ne i32 %124, 0
  br i1 %125, label %126, label %149

126:                                              ; preds = %118
  %127 = load i32, ptr %7, align 4, !tbaa !24
  %128 = icmp eq i32 %127, -541478725
  br i1 %128, label %129, label %140

129:                                              ; preds = %126
  %130 = load ptr, ptr %4, align 8, !tbaa !22
  %131 = getelementptr inbounds nuw %struct.FieldMatchContext, ptr %130, i32 0, i32 11
  %132 = load i32, ptr %131, align 4, !tbaa !57
  %133 = or i32 %132, 1
  store i32 %133, ptr %131, align 4, !tbaa !57
  %134 = load ptr, ptr %3, align 8, !tbaa !4
  %135 = getelementptr inbounds nuw %struct.AVFilterContext, ptr %134, i32 0, i32 4
  %136 = load ptr, ptr %135, align 8, !tbaa !54
  %137 = getelementptr inbounds ptr, ptr %136, i64 0
  %138 = load ptr, ptr %137, align 8, !tbaa !51
  %139 = call i32 @filter_frame(ptr noundef %138, ptr noundef null)
  store i32 %139, ptr %6, align 4, !tbaa !24
  br label %140

140:                                              ; preds = %129, %126
  %141 = load ptr, ptr %3, align 8, !tbaa !4
  %142 = getelementptr inbounds nuw %struct.AVFilterContext, ptr %141, i32 0, i32 7
  %143 = load ptr, ptr %142, align 8, !tbaa !50
  %144 = getelementptr inbounds ptr, ptr %143, i64 0
  %145 = load ptr, ptr %144, align 8, !tbaa !51
  %146 = load i32, ptr %7, align 4, !tbaa !24
  %147 = load i64, ptr %8, align 8, !tbaa !58
  call void @ff_outlink_set_status(ptr noundef %145, i32 noundef %146, i64 noundef %147)
  %148 = load i32, ptr %6, align 4, !tbaa !24
  store i32 %148, ptr %2, align 4
  store i32 1, ptr %11, align 4
  br label %224

149:                                              ; preds = %118
  %150 = load ptr, ptr %4, align 8, !tbaa !22
  %151 = getelementptr inbounds nuw %struct.FieldMatchContext, ptr %150, i32 0, i32 15
  %152 = load i32, ptr %151, align 4, !tbaa !25
  %153 = icmp ne i32 %152, 0
  br i1 %153, label %154, label %185

154:                                              ; preds = %149
  %155 = load ptr, ptr %3, align 8, !tbaa !4
  %156 = getelementptr inbounds nuw %struct.AVFilterContext, ptr %155, i32 0, i32 4
  %157 = load ptr, ptr %156, align 8, !tbaa !54
  %158 = getelementptr inbounds ptr, ptr %157, i64 1
  %159 = load ptr, ptr %158, align 8, !tbaa !51
  %160 = call i32 @ff_inlink_acknowledge_status(ptr noundef %159, ptr noundef %7, ptr noundef %8)
  %161 = icmp ne i32 %160, 0
  br i1 %161, label %162, label %185

162:                                              ; preds = %154
  %163 = load i32, ptr %7, align 4, !tbaa !24
  %164 = icmp eq i32 %163, -541478725
  br i1 %164, label %165, label %176

165:                                              ; preds = %162
  %166 = load ptr, ptr %4, align 8, !tbaa !22
  %167 = getelementptr inbounds nuw %struct.FieldMatchContext, ptr %166, i32 0, i32 11
  %168 = load i32, ptr %167, align 4, !tbaa !57
  %169 = or i32 %168, 2
  store i32 %169, ptr %167, align 4, !tbaa !57
  %170 = load ptr, ptr %3, align 8, !tbaa !4
  %171 = getelementptr inbounds nuw %struct.AVFilterContext, ptr %170, i32 0, i32 4
  %172 = load ptr, ptr %171, align 8, !tbaa !54
  %173 = getelementptr inbounds ptr, ptr %172, i64 1
  %174 = load ptr, ptr %173, align 8, !tbaa !51
  %175 = call i32 @filter_frame(ptr noundef %174, ptr noundef null)
  store i32 %175, ptr %6, align 4, !tbaa !24
  br label %176

176:                                              ; preds = %165, %162
  %177 = load ptr, ptr %3, align 8, !tbaa !4
  %178 = getelementptr inbounds nuw %struct.AVFilterContext, ptr %177, i32 0, i32 7
  %179 = load ptr, ptr %178, align 8, !tbaa !50
  %180 = getelementptr inbounds ptr, ptr %179, i64 0
  %181 = load ptr, ptr %180, align 8, !tbaa !51
  %182 = load i32, ptr %7, align 4, !tbaa !24
  %183 = load i64, ptr %8, align 8, !tbaa !58
  call void @ff_outlink_set_status(ptr noundef %181, i32 noundef %182, i64 noundef %183)
  %184 = load i32, ptr %6, align 4, !tbaa !24
  store i32 %184, ptr %2, align 4
  store i32 1, ptr %11, align 4
  br label %224

185:                                              ; preds = %154, %149
  %186 = load ptr, ptr %3, align 8, !tbaa !4
  %187 = getelementptr inbounds nuw %struct.AVFilterContext, ptr %186, i32 0, i32 7
  %188 = load ptr, ptr %187, align 8, !tbaa !50
  %189 = getelementptr inbounds ptr, ptr %188, i64 0
  %190 = load ptr, ptr %189, align 8, !tbaa !51
  %191 = call i32 @ff_outlink_frame_wanted(ptr noundef %190)
  %192 = icmp ne i32 %191, 0
  br i1 %192, label %193, label %223

193:                                              ; preds = %185
  %194 = load ptr, ptr %4, align 8, !tbaa !22
  %195 = getelementptr inbounds nuw %struct.FieldMatchContext, ptr %194, i32 0, i32 7
  %196 = getelementptr inbounds [2 x i32], ptr %195, i64 0, i64 0
  %197 = load i32, ptr %196, align 8, !tbaa !24
  %198 = icmp eq i32 %197, 0
  br i1 %198, label %199, label %205

199:                                              ; preds = %193
  %200 = load ptr, ptr %3, align 8, !tbaa !4
  %201 = getelementptr inbounds nuw %struct.AVFilterContext, ptr %200, i32 0, i32 4
  %202 = load ptr, ptr %201, align 8, !tbaa !54
  %203 = getelementptr inbounds ptr, ptr %202, i64 0
  %204 = load ptr, ptr %203, align 8, !tbaa !51
  call void @ff_inlink_request_frame(ptr noundef %204)
  br label %205

205:                                              ; preds = %199, %193
  %206 = load ptr, ptr %4, align 8, !tbaa !22
  %207 = getelementptr inbounds nuw %struct.FieldMatchContext, ptr %206, i32 0, i32 15
  %208 = load i32, ptr %207, align 4, !tbaa !25
  %209 = icmp ne i32 %208, 0
  br i1 %209, label %210, label %222

210:                                              ; preds = %205
  %211 = load ptr, ptr %4, align 8, !tbaa !22
  %212 = getelementptr inbounds nuw %struct.FieldMatchContext, ptr %211, i32 0, i32 7
  %213 = getelementptr inbounds [2 x i32], ptr %212, i64 0, i64 1
  %214 = load i32, ptr %213, align 4, !tbaa !24
  %215 = icmp eq i32 %214, 0
  br i1 %215, label %216, label %222

216:                                              ; preds = %210
  %217 = load ptr, ptr %3, align 8, !tbaa !4
  %218 = getelementptr inbounds nuw %struct.AVFilterContext, ptr %217, i32 0, i32 4
  %219 = load ptr, ptr %218, align 8, !tbaa !54
  %220 = getelementptr inbounds ptr, ptr %219, i64 1
  %221 = load ptr, ptr %220, align 8, !tbaa !51
  call void @ff_inlink_request_frame(ptr noundef %221)
  br label %222

222:                                              ; preds = %216, %210, %205
  br label %223

223:                                              ; preds = %222, %185
  store i32 0, ptr %2, align 4
  store i32 1, ptr %11, align 4
  br label %224

224:                                              ; preds = %223, %176, %140, %116, %110, %79, %73, %45
  call void @llvm.lifetime.end.p0(i64 8, ptr %8) #10
  call void @llvm.lifetime.end.p0(i64 4, ptr %7) #10
  call void @llvm.lifetime.end.p0(i64 4, ptr %6) #10
  call void @llvm.lifetime.end.p0(i64 8, ptr %5) #10
  call void @llvm.lifetime.end.p0(i64 8, ptr %4) #10
  %225 = load i32, ptr %2, align 4
  ret i32 %225
}