; Function Attrs: nounwind uwtable
define internal i32 @activate(ptr noundef readonly captures(none) %0) #1 {
  %2 = alloca ptr, align 8
  %3 = alloca i32, align 4
  %4 = alloca i64, align 8
  %5 = getelementptr inbounds nuw i8, ptr %0, i64 72
  %6 = load ptr, ptr %5, align 8, !tbaa !4
  call void @llvm.lifetime.start.p0(i64 8, ptr nonnull %2) #10
  store ptr null, ptr %2, align 8, !tbaa !40
  call void @llvm.lifetime.start.p0(i64 4, ptr nonnull %3) #10
  call void @llvm.lifetime.start.p0(i64 8, ptr nonnull %4) #10
  %7 = getelementptr inbounds nuw i8, ptr %0, i64 56
  %8 = load ptr, ptr %7, align 8, !tbaa !41
  %9 = load ptr, ptr %8, align 8, !tbaa !42
  %10 = tail call i32 @ff_outlink_get_status(ptr noundef %9) #10
  %.not = icmp eq i32 %10, 0
  br i1 %.not, label %.critedge, label %.preheader

.preheader:                                       ; preds = %1
  %11 = getelementptr inbounds nuw i8, ptr %0, i64 40
  %12 = load i32, ptr %11, align 8, !tbaa !44
  %.not66 = icmp eq i32 %12, 0
  br i1 %.not66, label %.loopexit, label %.lr.ph

.lr.ph:                                           ; preds = %.preheader
  %13 = getelementptr inbounds nuw i8, ptr %0, i64 32
  br label %14

14:                                               ; preds = %.lr.ph, %14
  %indvars.iv = phi i64 [ 0, %.lr.ph ], [ %indvars.iv.next, %14 ]
  %15 = load ptr, ptr %13, align 8, !tbaa !45
  %16 = getelementptr inbounds nuw ptr, ptr %15, i64 %indvars.iv
  %17 = load ptr, ptr %16, align 8, !tbaa !42
  tail call void @ff_inlink_set_status(ptr noundef %17, i32 noundef %10) #10
  %indvars.iv.next = add nuw nsw i64 %indvars.iv, 1
  %18 = load i32, ptr %11, align 8, !tbaa !44
  %19 = zext i32 %18 to i64
  %20 = icmp samesign ult i64 %indvars.iv.next, %19
  br i1 %20, label %14, label %.loopexit, !llvm.loop !46

.critedge:                                        ; preds = %1
  %21 = getelementptr inbounds nuw i8, ptr %6, i64 56
  %22 = load i32, ptr %21, align 8, !tbaa !48
  %23 = icmp eq i32 %22, 0
  br i1 %23, label %24, label %.thread

24:                                               ; preds = %.critedge
  %25 = getelementptr inbounds nuw i8, ptr %0, i64 32
  %26 = load ptr, ptr %25, align 8, !tbaa !45
  %27 = load ptr, ptr %26, align 8, !tbaa !42
  %28 = call i32 @ff_inlink_consume_frame(ptr noundef %27, ptr noundef nonnull %2) #10
  %29 = icmp sgt i32 %28, 0
  br i1 %29, label %30, label %36

30:                                               ; preds = %24
  %31 = load ptr, ptr %25, align 8, !tbaa !45
  %32 = load ptr, ptr %31, align 8, !tbaa !42
  %33 = load ptr, ptr %2, align 8, !tbaa !40
  %34 = call fastcc i32 @filter_frame(ptr noundef %32, ptr noundef %33)
  %35 = icmp slt i32 %34, 0
  br i1 %35, label %.loopexit, label %.thread

36:                                               ; preds = %24
  %37 = icmp slt i32 %28, 0
  br i1 %37, label %.loopexit, label %.thread

.thread:                                          ; preds = %.critedge, %30, %36
  %.04460 = phi i32 [ 0, %36 ], [ 0, %.critedge ], [ %34, %30 ]
  %38 = getelementptr inbounds nuw i8, ptr %6, i64 108
  %39 = load i32, ptr %38, align 4, !tbaa !20
  %.not53 = icmp eq i32 %39, 0
  br i1 %.not53, label %.thread62, label %40

40:                                               ; preds = %.thread
  %41 = getelementptr inbounds nuw i8, ptr %6, i64 60
  %42 = load i32, ptr %41, align 4, !tbaa !48
  %43 = icmp eq i32 %42, 0
  br i1 %43, label %44, label %.thread62

44:                                               ; preds = %40
  %45 = getelementptr inbounds nuw i8, ptr %0, i64 32
  %46 = load ptr, ptr %45, align 8, !tbaa !45
  %47 = getelementptr inbounds nuw i8, ptr %46, i64 8
  %48 = load ptr, ptr %47, align 8, !tbaa !42
  %49 = call i32 @ff_inlink_consume_frame(ptr noundef %48, ptr noundef nonnull %2) #10
  %50 = icmp sgt i32 %49, 0
  br i1 %50, label %51, label %58

51:                                               ; preds = %44
  %52 = load ptr, ptr %45, align 8, !tbaa !45
  %53 = getelementptr inbounds nuw i8, ptr %52, i64 8
  %54 = load ptr, ptr %53, align 8, !tbaa !42
  %55 = load ptr, ptr %2, align 8, !tbaa !40
  %56 = call fastcc i32 @filter_frame(ptr noundef %54, ptr noundef %55)
  %57 = icmp slt i32 %56, 0
  br i1 %57, label %.loopexit, label %.thread62

58:                                               ; preds = %44
  %59 = icmp slt i32 %49, 0
  br i1 %59, label %.loopexit, label %.thread62

.thread62:                                        ; preds = %.thread, %40, %51, %58
  %.14564 = phi i32 [ 0, %58 ], [ %.04460, %.thread ], [ %.04460, %40 ], [ %56, %51 ]
  %60 = getelementptr inbounds nuw i8, ptr %0, i64 32
  %61 = load ptr, ptr %60, align 8, !tbaa !45
  %62 = load ptr, ptr %61, align 8, !tbaa !42
  %63 = call i32 @ff_inlink_acknowledge_status(ptr noundef %62, ptr noundef nonnull %3, ptr noundef nonnull %4) #10
  %.not54 = icmp eq i32 %63, 0
  br i1 %.not54, label %79, label %64

64:                                               ; preds = %.thread62
  %65 = load i32, ptr %3, align 4, !tbaa !48
  %66 = icmp eq i32 %65, -541478725
  br i1 %66, label %67, label %74

67:                                               ; preds = %64
  %68 = getelementptr inbounds nuw i8, ptr %6, i64 84
  %69 = load i32, ptr %68, align 4, !tbaa !49
  %70 = or i32 %69, 1
  store i32 %70, ptr %68, align 4, !tbaa !49
  %71 = load ptr, ptr %60, align 8, !tbaa !45
  %72 = load ptr, ptr %71, align 8, !tbaa !42
  %73 = call fastcc i32 @filter_frame(ptr noundef %72, ptr noundef null)
  %.pre = load i32, ptr %3, align 4, !tbaa !48
  br label %74

74:                                               ; preds = %67, %64
  %75 = phi i32 [ %.pre, %67 ], [ %65, %64 ]
  %.2 = phi i32 [ %73, %67 ], [ %.14564, %64 ]
  %76 = load ptr, ptr %7, align 8, !tbaa !41
  %77 = load ptr, ptr %76, align 8, !tbaa !42
  %78 = load i64, ptr %4, align 8, !tbaa !50
  call void @ff_avfilter_link_set_in_status(ptr noundef %77, i32 noundef %75, i64 noundef %78) #10
  br label %.loopexit

79:                                               ; preds = %.thread62
  %80 = load i32, ptr %38, align 4, !tbaa !20
  %.not55 = icmp eq i32 %80, 0
  br i1 %.not55, label %102, label %81

81:                                               ; preds = %79
  %82 = load ptr, ptr %60, align 8, !tbaa !45
  %83 = getelementptr inbounds nuw i8, ptr %82, i64 8
  %84 = load ptr, ptr %83, align 8, !tbaa !42
  %85 = call i32 @ff_inlink_acknowledge_status(ptr noundef %84, ptr noundef nonnull %3, ptr noundef nonnull %4) #10
  %.not56 = icmp eq i32 %85, 0
  br i1 %.not56, label %102, label %86

86:                                               ; preds = %81
  %87 = load i32, ptr %3, align 4, !tbaa !48
  %88 = icmp eq i32 %87, -541478725
  br i1 %88, label %89, label %97

89:                                               ; preds = %86
  %90 = getelementptr inbounds nuw i8, ptr %6, i64 84
  %91 = load i32, ptr %90, align 4, !tbaa !49
  %92 = or i32 %91, 2
  store i32 %92, ptr %90, align 4, !tbaa !49
  %93 = load ptr, ptr %60, align 8, !tbaa !45
  %94 = getelementptr inbounds nuw i8, ptr %93, i64 8
  %95 = load ptr, ptr %94, align 8, !tbaa !42
  %96 = call fastcc i32 @filter_frame(ptr noundef %95, ptr noundef null)
  %.pre68 = load i32, ptr %3, align 4, !tbaa !48
  br label %97

97:                                               ; preds = %89, %86
  %98 = phi i32 [ %.pre68, %89 ], [ %87, %86 ]
  %.3 = phi i32 [ %96, %89 ], [ %.14564, %86 ]
  %99 = load ptr, ptr %7, align 8, !tbaa !41
  %100 = load ptr, ptr %99, align 8, !tbaa !42
  %101 = load i64, ptr %4, align 8, !tbaa !50
  call void @ff_avfilter_link_set_in_status(ptr noundef %100, i32 noundef %98, i64 noundef %101) #10
  br label %.loopexit

102:                                              ; preds = %81, %79
  %103 = load ptr, ptr %7, align 8, !tbaa !41
  %104 = load ptr, ptr %103, align 8, !tbaa !42
  %105 = call i32 @ff_outlink_frame_wanted(ptr noundef %104) #10
  %.not57 = icmp eq i32 %105, 0
  br i1 %.not57, label %.loopexit, label %106

106:                                              ; preds = %102
  %107 = load i32, ptr %21, align 8, !tbaa !48
  %108 = icmp eq i32 %107, 0
  br i1 %108, label %109, label %112

109:                                              ; preds = %106
  %110 = load ptr, ptr %60, align 8, !tbaa !45
  %111 = load ptr, ptr %110, align 8, !tbaa !42
  call void @ff_inlink_request_frame(ptr noundef %111) #10
  br label %112

112:                                              ; preds = %109, %106
  %113 = load i32, ptr %38, align 4, !tbaa !20
  %.not58 = icmp eq i32 %113, 0
  br i1 %.not58, label %.loopexit, label %114

114:                                              ; preds = %112
  %115 = getelementptr inbounds nuw i8, ptr %6, i64 60
  %116 = load i32, ptr %115, align 4, !tbaa !48
  %117 = icmp eq i32 %116, 0
  br i1 %117, label %118, label %.loopexit

118:                                              ; preds = %114
  %119 = load ptr, ptr %60, align 8, !tbaa !45
  %120 = getelementptr inbounds nuw i8, ptr %119, i64 8
  %121 = load ptr, ptr %120, align 8, !tbaa !42
  call void @ff_inlink_request_frame(ptr noundef %121) #10
  br label %.loopexit

.loopexit:                                        ; preds = %14, %.preheader, %102, %118, %114, %112, %58, %51, %36, %30, %97, %74
  %.1 = phi i32 [ %.2, %74 ], [ %.3, %97 ], [ %34, %30 ], [ %28, %36 ], [ %56, %51 ], [ %49, %58 ], [ 0, %112 ], [ 0, %114 ], [ 0, %118 ], [ 0, %102 ], [ 0, %.preheader ], [ 0, %14 ]
  call void @llvm.lifetime.end.p0(i64 8, ptr nonnull %4) #10
  call void @llvm.lifetime.end.p0(i64 4, ptr nonnull %3) #10
  call void @llvm.lifetime.end.p0(i64 8, ptr nonnull %2) #10
  ret i32 %.1
}